# TODO: this file should be removed.
# We already must keep the key in encrypted data bags, so it is confusing to
# have half of the keypair loaded from defaults in a different place.

Certificate:
    Data:
        Version: 1 (0x0)
        Serial Number:
            f4:1d:6e:e2:e4:67:59:81
        Signature Algorithm: sha256WithRSAEncryption
        Issuer: CN=int.login.gov, O=GSA, OU=18f, L=Washington, ST=DC, C=US/emailAddress=18f@gsa.gov
        Validity
            Not Before: Jul 11 19:54:38 2017 GMT
            Not After : Jul 11 19:54:38 2018 GMT
        Subject: CN=int.login.gov, O=GSA, OU=18f, L=Washington, ST=DC, C=US/emailAddress=18f@gsa.gov
        Subject Public Key Info:
            Public Key Algorithm: rsaEncryption
            RSA Public Key: (2048 bit)
                Modulus (2048 bit):
                    00:d7:13:b6:5e:5b:4a:c9:47:88:a0:a4:f1:d8:8f:
                    cd:bb:fb:8e:7d:5b:72:46:72:94:cf:0a:e6:ab:7d:
                    0f:15:f6:ef:d4:27:de:61:04:1c:33:35:c8:a1:d9:
                    2e:ad:23:5d:39:4a:b9:3c:10:73:be:87:47:92:63:
                    8f:c8:94:73:a5:41:ad:b2:e7:15:52:d6:0f:ba:0c:
                    44:e3:58:38:f8:23:9c:77:a4:29:10:5f:ba:fd:25:
                    95:23:c7:b6:09:bb:1f:b4:6e:9a:1e:1f:ce:a9:5e:
                    18:2b:d5:b6:0e:29:ba:bf:6f:bf:76:a8:48:d1:68:
                    3a:ae:a9:e6:44:e4:8a:21:99:b4:14:73:ab:87:5c:
                    97:94:b7:ff:29:92:e0:45:39:12:23:39:f1:a3:40:
                    70:08:11:6b:e0:7f:c6:23:e7:e4:06:27:11:8b:6c:
                    84:49:7b:8b:41:1c:19:ba:f7:16:52:eb:87:d4:53:
                    12:18:9c:d4:e3:b4:68:95:18:76:af:b8:cc:c4:90:
                    04:8e:8a:3e:d9:5a:1d:ee:b8:92:19:99:23:d2:1a:
                    19:b6:89:e2:80:ca:d2:55:bd:09:b4:c3:2e:32:07:
                    c3:83:64:94:8b:a4:27:42:8f:9d:cd:48:31:2a:26:
                    92:7c:e0:ee:f3:1e:2f:d7:31:00:ad:b1:f9:cf:18:
                    5e:89
                Exponent: 65537 (0x10001)
    Signature Algorithm: sha256WithRSAEncryption
        d2:09:d3:52:88:f8:5d:16:30:be:59:29:6d:87:6e:d3:1d:7c:
        c6:86:af:24:8d:14:50:24:a4:f2:f4:65:1f:e7:94:cd:4c:07:
        57:cc:82:92:2c:25:93:77:01:df:11:a2:9a:f7:22:3d:89:90:
        49:f6:0c:2a:7d:67:56:9d:cc:42:1b:69:a5:8d:ce:65:7f:c6:
        ef:66:49:98:7d:f5:e4:5f:5b:b9:e1:51:72:59:14:65:a3:d4:
        3b:80:d0:13:f3:96:12:a6:e1:6a:4c:96:31:90:0a:44:db:59:
        9b:dc:21:2a:1b:6e:58:89:fd:cf:17:4f:c9:e1:25:f3:14:46:
        7b:d4:42:5c:30:01:e2:b3:8c:2e:21:9b:dc:83:e5:11:69:c3:
        57:56:23:c9:af:34:95:e9:49:f4:64:4f:1c:15:8c:8a:40:71:
        9b:7a:61:39:af:f9:b3:87:f6:be:94:68:e2:70:4f:66:98:a9:
        cf:d5:9f:50:2f:a4:ba:ab:7c:8a:fd:57:30:99:ee:12:75:22:
        df:38:17:0a:45:76:2e:dc:4f:7c:31:38:87:ee:af:23:66:b4:
        98:07:7a:0b:41:db:97:fe:1c:dd:18:ca:23:ac:3d:ad:00:fc:
        95:12:de:6d:1a:07:1e:b6:37:ec:1d:6a:eb:85:59:33:d6:97:
        01:e2:10:d1
-----BEGIN CERTIFICATE-----
MIIDejCCAmICCQD0HW7i5GdZgTANBgkqhkiG9w0BAQsFADB/MRYwFAYDVQQDEw1p
bnQubG9naW4uZ292MQwwCgYDVQQKEwNHU0ExDDAKBgNVBAsTAzE4ZjETMBEGA1UE
BxMKV2FzaGluZ3RvbjELMAkGA1UECBMCREMxCzAJBgNVBAYTAlVTMRowGAYJKoZI
hvcNAQkBFgsxOGZAZ3NhLmdvdjAeFw0xNzA3MTExOTU0MzhaFw0xODA3MTExOTU0
MzhaMH8xFjAUBgNVBAMTDWludC5sb2dpbi5nb3YxDDAKBgNVBAoTA0dTQTEMMAoG
A1UECxMDMThmMRMwEQYDVQQHEwpXYXNoaW5ndG9uMQswCQYDVQQIEwJEQzELMAkG
A1UEBhMCVVMxGjAYBgkqhkiG9w0BCQEWCzE4ZkBnc2EuZ292MIIBIjANBgkqhkiG
9w0BAQEFAAOCAQ8AMIIBCgKCAQEA1xO2XltKyUeIoKTx2I/Nu/uOfVtyRnKUzwrm
q30PFfbv1CfeYQQcMzXIodkurSNdOUq5PBBzvodHkmOPyJRzpUGtsucVUtYPugxE
41g4+COcd6QpEF+6/SWVI8e2CbsftG6aHh/OqV4YK9W2Dim6v2+/dqhI0Wg6rqnm
ROSKIZm0FHOrh1yXlLf/KZLgRTkSIznxo0BwCBFr4H/GI+fkBicRi2yESXuLQRwZ
uvcWUuuH1FMSGJzU47RolRh2r7jMxJAEjoo+2Vod7riSGZkj0hoZtonigMrSVb0J
tMMuMgfDg2SUi6QnQo+dzUgxKiaSfODu8x4v1zEArbH5zxheiQIDAQABMA0GCSqG
SIb3DQEBCwUAA4IBAQDSCdNSiPhdFjC+WSlth27THXzGhq8kjRRQJKTy9GUf55TN
TAdXzIKSLCWTdwHfEaKa9yI9iZBJ9gwqfWdWncxCG2mljc5lf8bvZkmYffXkX1u5
4VFyWRRlo9Q7gNAT85YSpuFqTJYxkApE21mb3CEqG25Yif3PF0/J4SXzFEZ71EJc
MAHis4wuIZvcg+URacNXViPJrzSV6Un0ZE8cFYyKQHGbemE5r/mzh/a+lGjicE9m
mKnP1Z9QL6S6q3yK/Vcwme4SdSLfOBcKRXYu3E98MTiH7q8jZrSYB3oLQduX/hzd
GMojrD2tAPyVEt5tGgcetjfsHWrrhVkz1pcB4hDR
-----END CERTIFICATE-----
